Certificate:
    Data:
        Version: 3 (0x2)
        Serial Number:
            58:e9:d0:9a:c1:7a:fc:3d:10:1f:d7:d9:9d:3b:f1:54
        Signature Algorithm: sha256WithRSAEncryption
        Issuer: CN=Easy-RSA CA
        Validity
            Not Before: Jan 16 14:32:04 2024 GMT
            Not After : Apr 20 14:32:04 2026 GMT
        Subject: CN=CLIENT
        Subject Public Key Info:
            Public Key Algorithm: rsaEncryption
                Public-Key: (2048 bit)
                Modulus:
                    00:b5:dd:82:aa:c5:36:c4:69:15:52:cd:61:f4:38:
                    6d:7b:79:d2:42:ee:17:89:33:a8:c4:db:0a:91:8c:
                    f0:06:6c:4a:ac:63:63:9f:5e:eb:f8:0a:02:b9:93:
                    94:2b:b2:fd:da:e5:90:ff:c7:d6:a4:65:35:94:55:
                    a1:ad:f6:1a:42:e1:bb:ce:49:db:da:7a:09:ee:65:
                    e5:b4:f1:13:be:fc:1c:3c:39:a0:06:2e:e8:6b:80:
                    f7:72:93:9c:96:39:27:db:7b:7f:0c:ea:db:75:0e:
                    ce:a5:46:d0:e1:ca:8e:01:db:ae:a2:bf:8d:2d:7f:
                    d1:5b:d9:30:16:6f:43:be:c9:2f:e9:13:88:a6:8a:
                    9f:0c:ed:d6:d7:03:18:2b:b2:59:9d:17:7a:b0:31:
                    0e:42:74:ff:4d:ac:5f:3e:a0:2b:72:3b:6f:1f:59:
                    10:20:de:19:d9:42:a9:9e:f6:41:ba:0e:3f:4f:8d:
                    68:0c:0f:7c:32:bc:aa:c5:ff:a5:01:da:f9:eb:36:
                    6b:77:5e:17:f2:94:5c:d4:a2:51:d0:7e:c3:57:78:
                    ab:80:10:c9:a6:cd:35:52:a6:a6:9b:c6:a4:59:13:
                    9d:b6:d3:f5:bc:39:47:4b:f6:2e:6e:0a:6f:95:b7:
                    45:53:9c:b9:d7:27:b7:ab:ae:c7:17:4c:dc:38:b1:
                    9f:03
                Exponent: 65537 (0x10001)
        X509v3 extensions:
            X509v3 Basic Constraints: 
                CA:FALSE
            X509v3 Subject Key Identifier: 
                9D:AD:DD:23:B7:39:AC:2B:C6:B6:DC:45:73:8C:63:91:E0:EF:7D:82
            X509v3 Authority Key Identifier: 
                keyid:D3:5F:B3:9B:B4:75:3F:50:B5:0F:1A:C4:D0:BC:E0:2A:42:A8:E6:CF
                DirName:/CN=Easy-RSA CA
                serial:3A:7C:C9:E6:A1:86:3C:F6:50:63:AF:28:E1:BD:09:9F:43:38:CE:E0
            X509v3 Extended Key Usage: 
                TLS Web Client Authentication
            X509v3 Key Usage: 
                Digital Signature
    Signature Algorithm: sha256WithRSAEncryption
    Signature Value:
        0b:c3:c7:77:b3:8c:d1:a7:d6:5a:48:94:94:81:bc:36:e3:e1:
        01:80:2c:12:89:69:42:96:61:56:0f:8c:77:e0:5d:d7:03:66:
        81:bc:eb:d1:3e:99:18:10:e3:87:52:ae:04:db:01:6c:57:1c:
        54:60:0b:1e:17:d4:f2:68:e8:b1:54:67:db:c5:37:6f:7f:20:
        7a:a0:e4:0a:62:a4:eb:bd:7f:47:f9:4d:ad:64:b2:d3:0f:a2:
        ad:1b:59:95:14:8c:fa:77:a5:e7:d8:af:47:23:60:e5:d9:9d:
        f4:4c:4f:58:6e:fd:5b:26:a8:1e:32:15:18:c9:f0:24:f0:4d:
        53:f5:a1:53:8c:7d:19:30:16:ed:1b:c6:3a:4c:44:69:fe:59:
        1e:c7:5f:01:54:8f:a4:c6:f0:d3:76:70:80:2e:f5:ed:a0:4a:
        db:b5:50:c8:37:22:63:79:58:06:c2:23:9a:b7:fc:34:e3:66:
        ee:c0:0d:8a:4b:70:14:fd:56:56:79:09:2c:b2:c3:af:33:66:
        d5:6d:4f:d8:7b:8f:26:73:fc:9e:9b:7d:b9:65:4f:66:de:03:
        0a:37:38:49:f5:dc:2b:87:03:bc:5c:4c:38:d9:07:2f:3f:c0:
        97:e9:22:72:4c:67:e4:fa:a3:12:54:10:36:c6:b6:53:d3:21:
        fa:7d:ee:a4
-----BEGIN CERTIFICATE-----
MIIDVDCCAjygAwIBAgIQWOnQmsF6/D0QH9fZnTvxVDANBgkqhkiG9w0BAQsFADAW
MRQwEgYDVQQDDAtFYXN5LVJTQSBDQTAeFw0yNDAxMTYxNDMyMDRaFw0yNjA0MjAx
NDMyMDRaMBExDzANBgNVBAMMBkNMSUVOVDCCASIwDQYJKoZIhvcNAQEBBQADggEP
ADCCAQoCggEBALXdgqrFNsRpFVLNYfQ4bXt50kLuF4kzqMTbCpGM8AZsSqxjY59e
6/gKArmTlCuy/drlkP/H1qRlNZRVoa32GkLhu85J29p6Ce5l5bTxE778HDw5oAYu
6GuA93KTnJY5J9t7fwzq23UOzqVG0OHKjgHbrqK/jS1/0VvZMBZvQ77JL+kTiKaK
nwzt1tcDGCuyWZ0XerAxDkJ0/02sXz6gK3I7bx9ZECDeGdlCqZ72QboOP0+NaAwP
fDK8qsX/pQHa+es2a3deF/KUXNSiUdB+w1d4q4AQyabNNVKmppvGpFkTnbbT9bw5
R0v2Lm4Kb5W3RVOcudcnt6uuxxdM3DixnwMCAwEAAaOBojCBnzAJBgNVHRMEAjAA
MB0GA1UdDgQWBBSdrd0jtzmsK8a23EVzjGOR4O99gjBRBgNVHSMESjBIgBTTX7Ob
tHU/ULUPGsTQvOAqQqjmz6EapBgwFjEUMBIGA1UEAwwLRWFzeS1SU0EgQ0GCFDp8
yeahhjz2UGOvKOG9CZ9DOM7gMBMGA1UdJQQMMAoGCCsGAQUFBwMCMAsGA1UdDwQE
AwIHgDANBgkqhkiG9w0BAQsFAAOCAQEAC8PHd7OM0afWWkiUlIG8NuPhAYAsEolp
QpZhVg+Md+Bd1wNmgbzr0T6ZGBDjh1KuBNsBbFccVGALHhfU8mjosVRn28U3b38g
eqDkCmKk671/R/lNrWSy0w+irRtZlRSM+nel59ivRyNg5dmd9ExPWG79WyaoHjIV
GMnwJPBNU/WhU4x9GTAW7RvGOkxEaf5ZHsdfAVSPpMbw03ZwgC717aBK27VQyDci
Y3lYBsIjmrf8NONm7sANiktwFP1WVnkJLLLDrzNm1W1P2HuPJnP8npt9uWVPZt4D
Cjc4SfXcK4cDvFxMONkHLz/Al+kickxn5PqjElQQNsa2U9Mh+n3upA==
-----END CERTIFICATE-----
